ccopy_reg
_reconstructor
p0
(cutil
Counter
p1
c__builtin__
dict
p2
(dp3
S'closest-food'
p4
F-0.09471682457822658
sS'invaderDistance'
p5
F-0.012151008118057955
sS'distanceToMid'
p6
F-0.044145033413293594
sS'bias'
p7
F0.3915963986620178
sS'ghostDistance'
p8
F-1.980013514190264
sS'killpacman'
p9
I1
sS'#-of-ghosts-1-step-away'
p10
F-1.1980160563665583
sS'#-of-pacmen-1-step-away'
p11
F-0.0003664266909713913
sS'eats-food'
p12
F0.390566656330131
stp13
Rp14
.