ccopy_reg
_reconstructor
p0
(cutil
Counter
p1
c__builtin__
dict
p2
(dp3
S'closest-food'
p4
F-0.06781406190969524
sS'invaderDistance'
p5
F0.022856800343259296
sS'distanceToMid'
p6
F-0.040996330226733886
sS'bias'
p7
F3.443972398378595
sS'ghostDistance'
p8
F-9.15482744719519
sS'killpacman'
p9
F2.374491721222342
sS'#-of-ghosts-1-step-away'
p10
F-1.9442566243702715
sS'#-of-pacmen-1-step-away'
p11
F-0.06522626933247754
sS'eats-food'
p12
F0.30960448214291714
stp13
Rp14
.