ccopy_reg
_reconstructor
p0
(cutil
Counter
p1
c__builtin__
dict
p2
(dp3
S'closest-food'
p4
F-0.09718829380421336
sS'invaderDistance'
p5
F0.03984307132589621
sS'distanceToMid'
p6
F-0.05015525566521495
sS'bias'
p7
F0.7189454742378617
sS'ghostDistance'
p8
F-1.9289836768618884
sS'killpacman'
p9
F1.3954520306025284
sS'#-of-ghosts-1-step-away'
p10
F-1.1999719476362667
sS'#-of-pacmen-1-step-away'
p11
F-0.006410126524830518
sS'eats-food'
p12
F0.30960448214291714
stp13
Rp14
.